; Function Attrs: mustprogress uwtable
define void @_ZN3gmx25CommandLineHelpModuleImplC2ERKNS_15IProgramContextERKNSt7__cxx1112basic_stringIcSt11char_traitsIcESaIcEEERKSt3mapIS9_St10unique_ptrINS_18ICommandLineModuleESt14default_deleteISE_EESt4lessIS9_ESaISt4pairISA_SH_EEERKSt6vectorISD_INS_26CommandLineModuleGroupDataESF_ISR_EESaIST_EE(ptr noundef nonnull align 8 dereferenceable(168) %0, ptr noundef nonnull align 8 dereferenceable(8) %1, ptr noundef nonnull align 8 dereferenceable(32) %2, ptr noundef nonnull align 8 dereferenceable(48) %3, ptr noundef nonnull align 8 dereferenceable(24) %4) unnamed_addr #1 align 2 personality ptr @__gxx_personality_v0 {
  tail call void @_ZN3gmx26AbstractCompositeHelpTopicC2Ev(ptr noundef nonnull align 8 dereferenceable(16) %0)
  store ptr getelementptr inbounds inrange(-16, 64) ({ [10 x ptr] }, ptr @_ZTVN3gmx12_GLOBAL__N_113RootHelpTopicE, i64 0, i32 0, i64 2), ptr %0, align 8
  %6 = getelementptr inbounds i8, ptr %0, i64 16
  store ptr %0, ptr %6, align 8
  %7 = getelementptr inbounds i8, ptr %0, i64 24
  tail call void @_ZNSt7__cxx1112basic_stringIcSt11char_traitsIcESaIcEEC1Ev(ptr noundef nonnull align 8 dereferenceable(32) %7) #19
  %8 = getelementptr inbounds i8, ptr %0, i64 56
  tail call void @llvm.memset.p0.i64(ptr noundef nonnull align 8 dereferenceable(24) %8, i8 0, i64 24, i1 false)
  %9 = getelementptr inbounds i8, ptr %0, i64 80
  store ptr %1, ptr %9, align 8
  %10 = getelementptr inbounds i8, ptr %0, i64 88
  invoke void @_ZNSt7__cxx1112basic_stringIcSt11char_traitsIcESaIcEEC1ERKS4_(ptr noundef nonnull align 8 dereferenceable(32) %10, ptr noundef nonnull align 8 dereferenceable(32) %2)
          to label %11 unwind label %18

11:                                               ; preds = %5
  %12 = getelementptr inbounds i8, ptr %0, i64 120
  store ptr %3, ptr %12, align 8
  %13 = getelementptr inbounds i8, ptr %0, i64 128
  store ptr %4, ptr %13, align 8
  %14 = getelementptr inbounds i8, ptr %0, i64 136
  tail call void @llvm.memset.p0.i64(ptr noundef nonnull align 8 dereferenceable(17) %14, i8 0, i64 17, i1 false)
  %15 = invoke noundef nonnull align 8 dereferenceable(8) ptr @_ZN3gmx27defaultFileOutputRedirectorEv()
          to label %16 unwind label %20

16:                                               ; preds = %11
  %17 = getelementptr inbounds i8, ptr %0, i64 160
  store ptr %15, ptr %17, align 8
  ret void

18:                                               ; preds = %5
  %19 = landingpad { ptr, i32 }
          cleanup
  br label %22

20:                                               ; preds = %11
  %21 = landingpad { ptr, i32 }
          cleanup
  tail call void @_ZNSt7__cxx1112basic_stringIcSt11char_traitsIcESaIcEED1Ev(ptr noundef nonnull align 8 dereferenceable(32) %10) #19
  br label %22

22:                                               ; preds = %20, %18
  %.pn = phi { ptr, i32 } [ %21, %20 ], [ %19, %18 ]
  tail call void @_ZN3gmx12_GLOBAL__N_113RootHelpTopicD2Ev(ptr noundef nonnull align 8 dereferenceable(80) %0) #19
  resume { ptr, i32 } %.pn
}